target datalayout = "e-m:e-p270:32:32-p271:32:32-p272:64:64-i64:64-i128:128-f80:128-n8:16:32:64-S128"
target triple = "x86_64-pc-linux-gnu"

@sane_ctype = external constant [256 x i8], align 16
@.str.120 = private unnamed_addr constant [59 x i8] c"invalid author/committer line - missing space before email\00", align 1
@.str.121 = private unnamed_addr constant [4 x i8] c"<>\0A\00", align 1
@.str.122 = private unnamed_addr constant [41 x i8] c"invalid author/committer line - bad name\00", align 1
@.str.123 = private unnamed_addr constant [46 x i8] c"invalid author/committer line - missing email\00", align 1
@.str.124 = private unnamed_addr constant [42 x i8] c"invalid author/committer line - bad email\00", align 1
@.str.125 = private unnamed_addr constant [58 x i8] c"invalid author/committer line - missing space before date\00", align 1
@.str.126 = private unnamed_addr constant [41 x i8] c"invalid author/committer line - bad date\00", align 1
@.str.127 = private unnamed_addr constant [49 x i8] c"invalid author/committer line - zero-padded date\00", align 1
@.str.128 = private unnamed_addr constant [61 x i8] c"invalid author/committer line - date causes integer overflow\00", align 1
@.str.129 = private unnamed_addr constant [46 x i8] c"invalid author/committer line - bad time zone\00", align 1

; Function Attrs: nounwind uwtable
define internal i32 @fsck_ident(ptr noundef %0, ptr noundef %1, i32 noundef %2, ptr noundef %3) #0 {
  %5 = alloca i32, align 4
  %6 = alloca ptr, align 8
  %7 = alloca ptr, align 8
  %8 = alloca i32, align 4
  %9 = alloca ptr, align 8
  %10 = alloca ptr, align 8
  %11 = alloca ptr, align 8
  %12 = alloca i32, align 4
  store ptr %0, ptr %6, align 8, !tbaa !117
  store ptr %1, ptr %7, align 8, !tbaa !69
  store i32 %2, ptr %8, align 4, !tbaa !11
  store ptr %3, ptr %9, align 8, !tbaa !24
  call void @llvm.lifetime.start.p0(i64 8, ptr %10) #11
  %13 = load ptr, ptr %6, align 8, !tbaa !117
  %14 = load ptr, ptr %13, align 8, !tbaa !9
  store ptr %14, ptr %10, align 8, !tbaa !9
  call void @llvm.lifetime.start.p0(i64 8, ptr %11) #11
  %15 = load ptr, ptr %6, align 8, !tbaa !117
  %16 = load ptr, ptr %15, align 8, !tbaa !9
  %17 = call ptr @strchrnul(ptr noundef %16, i32 noundef 10) #12
  %18 = load ptr, ptr %6, align 8, !tbaa !117
  store ptr %17, ptr %18, align 8, !tbaa !9
  %19 = load ptr, ptr %6, align 8, !tbaa !117
  %20 = load ptr, ptr %19, align 8, !tbaa !9
  %21 = load i8, ptr %20, align 1, !tbaa !19
  %22 = sext i8 %21 to i32
  %23 = icmp eq i32 %22, 10
  br i1 %23, label %24, label %28

24:                                               ; preds = %4
  %25 = load ptr, ptr %6, align 8, !tbaa !117
  %26 = load ptr, ptr %25, align 8, !tbaa !9
  %27 = getelementptr inbounds nuw i8, ptr %26, i32 1
  store ptr %27, ptr %25, align 8, !tbaa !9
  br label %28

28:                                               ; preds = %24, %4
  %29 = load ptr, ptr %10, align 8, !tbaa !9
  %30 = load i8, ptr %29, align 1, !tbaa !19
  %31 = sext i8 %30 to i32
  %32 = icmp eq i32 %31, 60
  br i1 %32, label %33, label %38

33:                                               ; preds = %28
  %34 = load ptr, ptr %9, align 8, !tbaa !24
  %35 = load ptr, ptr %7, align 8, !tbaa !69
  %36 = load i32, ptr %8, align 4, !tbaa !11
  %37 = call i32 (ptr, ptr, i32, i32, ptr, ...) @report(ptr noundef %34, ptr noundef %35, i32 noundef %36, i32 noundef 20, ptr noundef @.str.120)
  store i32 %37, ptr %5, align 4
  store i32 1, ptr %12, align 4
  br label %239

38:                                               ; preds = %28
  %39 = load ptr, ptr %10, align 8, !tbaa !9
  %40 = call i64 @strcspn(ptr noundef %39, ptr noundef @.str.121) #12
  %41 = load ptr, ptr %10, align 8, !tbaa !9
  %42 = getelementptr inbounds nuw i8, ptr %41, i64 %40
  store ptr %42, ptr %10, align 8, !tbaa !9
  %43 = load ptr, ptr %10, align 8, !tbaa !9
  %44 = load i8, ptr %43, align 1, !tbaa !19
  %45 = sext i8 %44 to i32
  %46 = icmp eq i32 %45, 62
  br i1 %46, label %47, label %52

47:                                               ; preds = %38
  %48 = load ptr, ptr %9, align 8, !tbaa !24
  %49 = load ptr, ptr %7, align 8, !tbaa !69
  %50 = load i32, ptr %8, align 4, !tbaa !11
  %51 = call i32 (ptr, ptr, i32, i32, ptr, ...) @report(ptr noundef %48, ptr noundef %49, i32 noundef %50, i32 noundef 5, ptr noundef @.str.122)
  store i32 %51, ptr %5, align 4
  store i32 1, ptr %12, align 4
  br label %239

52:                                               ; preds = %38
  %53 = load ptr, ptr %10, align 8, !tbaa !9
  %54 = load i8, ptr %53, align 1, !tbaa !19
  %55 = sext i8 %54 to i32
  %56 = icmp ne i32 %55, 60
  br i1 %56, label %57, label %62

57:                                               ; preds = %52
  %58 = load ptr, ptr %9, align 8, !tbaa !24
  %59 = load ptr, ptr %7, align 8, !tbaa !69
  %60 = load i32, ptr %8, align 4, !tbaa !11
  %61 = call i32 (ptr, ptr, i32, i32, ptr, ...) @report(ptr noundef %58, ptr noundef %59, i32 noundef %60, i32 noundef 19, ptr noundef @.str.123)
  store i32 %61, ptr %5, align 4
  store i32 1, ptr %12, align 4
  br label %239

62:                                               ; preds = %52
  %63 = load ptr, ptr %10, align 8, !tbaa !9
  %64 = getelementptr inbounds i8, ptr %63, i64 -1
  %65 = load i8, ptr %64, align 1, !tbaa !19
  %66 = sext i8 %65 to i32
  %67 = icmp ne i32 %66, 32
  br i1 %67, label %68, label %73

68:                                               ; preds = %62
  %69 = load ptr, ptr %9, align 8, !tbaa !24
  %70 = load ptr, ptr %7, align 8, !tbaa !69
  %71 = load i32, ptr %8, align 4, !tbaa !11
  %72 = call i32 (ptr, ptr, i32, i32, ptr, ...) @report(ptr noundef %69, ptr noundef %70, i32 noundef %71, i32 noundef 23, ptr noundef @.str.120)
  store i32 %72, ptr %5, align 4
  store i32 1, ptr %12, align 4
  br label %239

73:                                               ; preds = %62
  %74 = load ptr, ptr %10, align 8, !tbaa !9
  %75 = getelementptr inbounds nuw i8, ptr %74, i32 1
  store ptr %75, ptr %10, align 8, !tbaa !9
  %76 = load ptr, ptr %10, align 8, !tbaa !9
  %77 = call i64 @strcspn(ptr noundef %76, ptr noundef @.str.121) #12
  %78 = load ptr, ptr %10, align 8, !tbaa !9
  %79 = getelementptr inbounds nuw i8, ptr %78, i64 %77
  store ptr %79, ptr %10, align 8, !tbaa !9
  %80 = load ptr, ptr %10, align 8, !tbaa !9
  %81 = load i8, ptr %80, align 1, !tbaa !19
  %82 = sext i8 %81 to i32
  %83 = icmp ne i32 %82, 62
  br i1 %83, label %84, label %89

84:                                               ; preds = %73
  %85 = load ptr, ptr %9, align 8, !tbaa !24
  %86 = load ptr, ptr %7, align 8, !tbaa !69
  %87 = load i32, ptr %8, align 4, !tbaa !11
  %88 = call i32 (ptr, ptr, i32, i32, ptr, ...) @report(ptr noundef %85, ptr noundef %86, i32 noundef %87, i32 noundef 4, ptr noundef @.str.124)
  store i32 %88, ptr %5, align 4
  store i32 1, ptr %12, align 4
  br label %239

89:                                               ; preds = %73
  %90 = load ptr, ptr %10, align 8, !tbaa !9
  %91 = getelementptr inbounds nuw i8, ptr %90, i32 1
  store ptr %91, ptr %10, align 8, !tbaa !9
  %92 = load ptr, ptr %10, align 8, !tbaa !9
  %93 = load i8, ptr %92, align 1, !tbaa !19
  %94 = sext i8 %93 to i32
  %95 = icmp ne i32 %94, 32
  br i1 %95, label %96, label %101

96:                                               ; preds = %89
  %97 = load ptr, ptr %9, align 8, !tbaa !24
  %98 = load ptr, ptr %7, align 8, !tbaa !69
  %99 = load i32, ptr %8, align 4, !tbaa !11
  %100 = call i32 (ptr, ptr, i32, i32, ptr, ...) @report(ptr noundef %97, ptr noundef %98, i32 noundef %99, i32 noundef 22, ptr noundef @.str.125)
  store i32 %100, ptr %5, align 4
  store i32 1, ptr %12, align 4
  br label %239

101:                                              ; preds = %89
  %102 = load ptr, ptr %10, align 8, !tbaa !9
  %103 = getelementptr inbounds nuw i8, ptr %102, i32 1
  store ptr %103, ptr %10, align 8, !tbaa !9
  br label %104

104:                                              ; preds = %116, %101
  %105 = load ptr, ptr %10, align 8, !tbaa !9
  %106 = load i8, ptr %105, align 1, !tbaa !19
  %107 = sext i8 %106 to i32
  %108 = icmp eq i32 %107, 32
  br i1 %108, label %114, label %109

109:                                              ; preds = %104
  %110 = load ptr, ptr %10, align 8, !tbaa !9
  %111 = load i8, ptr %110, align 1, !tbaa !19
  %112 = sext i8 %111 to i32
  %113 = icmp eq i32 %112, 9
  br label %114

114:                                              ; preds = %109, %104
  %115 = phi i1 [ true, %104 ], [ %113, %109 ]
  br i1 %115, label %116, label %119

116:                                              ; preds = %114
  %117 = load ptr, ptr %10, align 8, !tbaa !9
  %118 = getelementptr inbounds nuw i8, ptr %117, i32 1
  store ptr %118, ptr %10, align 8, !tbaa !9
  br label %104, !llvm.loop !123

119:                                              ; preds = %114
  %120 = load ptr, ptr %10, align 8, !tbaa !9
  %121 = load i8, ptr %120, align 1, !tbaa !19
  %122 = zext i8 %121 to i64
  %123 = getelementptr inbounds nuw [256 x i8], ptr @sane_ctype, i64 0, i64 %122
  %124 = load i8, ptr %123, align 1, !tbaa !19
  %125 = zext i8 %124 to i32
  %126 = and i32 %125, 2
  %127 = icmp ne i32 %126, 0
  br i1 %127, label %133, label %128

128:                                              ; preds = %119
  %129 = load ptr, ptr %9, align 8, !tbaa !24
  %130 = load ptr, ptr %7, align 8, !tbaa !69
  %131 = load i32, ptr %8, align 4, !tbaa !11
  %132 = call i32 (ptr, ptr, i32, i32, ptr, ...) @report(ptr noundef %129, ptr noundef %130, i32 noundef %131, i32 noundef 2, ptr noundef @.str.126)
  store i32 %132, ptr %5, align 4
  store i32 1, ptr %12, align 4
  br label %239

133:                                              ; preds = %119
  %134 = load ptr, ptr %10, align 8, !tbaa !9
  %135 = load i8, ptr %134, align 1, !tbaa !19
  %136 = sext i8 %135 to i32
  %137 = icmp eq i32 %136, 48
  br i1 %137, label %138, label %149

138:                                              ; preds = %133
  %139 = load ptr, ptr %10, align 8, !tbaa !9
  %140 = getelementptr inbounds i8, ptr %139, i64 1
  %141 = load i8, ptr %140, align 1, !tbaa !19
  %142 = sext i8 %141 to i32
  %143 = icmp ne i32 %142, 32
  br i1 %143, label %144, label %149

144:                                              ; preds = %138
  %145 = load ptr, ptr %9, align 8, !tbaa !24
  %146 = load ptr, ptr %7, align 8, !tbaa !69
  %147 = load i32, ptr %8, align 4, !tbaa !11
  %148 = call i32 (ptr, ptr, i32, i32, ptr, ...) @report(ptr noundef %145, ptr noundef %146, i32 noundef %147, i32 noundef 32, ptr noundef @.str.127)
  store i32 %148, ptr %5, align 4
  store i32 1, ptr %12, align 4
  br label %239

149:                                              ; preds = %138, %133
  %150 = load ptr, ptr %10, align 8, !tbaa !9
  %151 = call i64 @strtoumax(ptr noundef %150, ptr noundef %11, i32 noundef 10) #11
  %152 = call i32 @date_overflows(i64 noundef %151)
  %153 = icmp ne i32 %152, 0
  br i1 %153, label %154, label %159

154:                                              ; preds = %149
  %155 = load ptr, ptr %9, align 8, !tbaa !24
  %156 = load ptr, ptr %7, align 8, !tbaa !69
  %157 = load i32, ptr %8, align 4, !tbaa !11
  %158 = call i32 (ptr, ptr, i32, i32, ptr, ...) @report(ptr noundef %155, ptr noundef %156, i32 noundef %157, i32 noundef 3, ptr noundef @.str.128)
  store i32 %158, ptr %5, align 4
  store i32 1, ptr %12, align 4
  br label %239

159:                                              ; preds = %149
  %160 = load ptr, ptr %11, align 8, !tbaa !9
  %161 = load ptr, ptr %10, align 8, !tbaa !9
  %162 = icmp eq ptr %160, %161
  br i1 %162, label %168, label %163

163:                                              ; preds = %159
  %164 = load ptr, ptr %11, align 8, !tbaa !9
  %165 = load i8, ptr %164, align 1, !tbaa !19
  %166 = sext i8 %165 to i32
  %167 = icmp ne i32 %166, 32
  br i1 %167, label %168, label %173

168:                                              ; preds = %163, %159
  %169 = load ptr, ptr %9, align 8, !tbaa !24
  %170 = load ptr, ptr %7, align 8, !tbaa !69
  %171 = load i32, ptr %8, align 4, !tbaa !11
  %172 = call i32 (ptr, ptr, i32, i32, ptr, ...) @report(ptr noundef %169, ptr noundef %170, i32 noundef %171, i32 noundef 2, ptr noundef @.str.126)
  store i32 %172, ptr %5, align 4
  store i32 1, ptr %12, align 4
  br label %239

173:                                              ; preds = %163
  %174 = load ptr, ptr %11, align 8, !tbaa !9
  %175 = getelementptr inbounds i8, ptr %174, i64 1
  store ptr %175, ptr %10, align 8, !tbaa !9
  %176 = load ptr, ptr %10, align 8, !tbaa !9
  %177 = load i8, ptr %176, align 1, !tbaa !19
  %178 = sext i8 %177 to i32
  %179 = icmp ne i32 %178, 43
  br i1 %179, label %180, label %185

180:                                              ; preds = %173
  %181 = load ptr, ptr %10, align 8, !tbaa !9
  %182 = load i8, ptr %181, align 1, !tbaa !19
  %183 = sext i8 %182 to i32
  %184 = icmp ne i32 %183, 45
  br i1 %184, label %231, label %185

185:                                              ; preds = %180, %173
  %186 = load ptr, ptr %10, align 8, !tbaa !9
  %187 = getelementptr inbounds i8, ptr %186, i64 1
  %188 = load i8, ptr %187, align 1, !tbaa !19
  %189 = zext i8 %188 to i64
  %190 = getelementptr inbounds nuw [256 x i8], ptr @sane_ctype, i64 0, i64 %189
  %191 = load i8, ptr %190, align 1, !tbaa !19
  %192 = zext i8 %191 to i32
  %193 = and i32 %192, 2
  %194 = icmp ne i32 %193, 0
  br i1 %194, label %195, label %231

195:                                              ; preds = %185
  %196 = load ptr, ptr %10, align 8, !tbaa !9
  %197 = getelementptr inbounds i8, ptr %196, i64 2
  %198 = load i8, ptr %197, align 1, !tbaa !19
  %199 = zext i8 %198 to i64
  %200 = getelementptr inbounds nuw [256 x i8], ptr @sane_ctype, i64 0, i64 %199
  %201 = load i8, ptr %200, align 1, !tbaa !19
  %202 = zext i8 %201 to i32
  %203 = and i32 %202, 2
  %204 = icmp ne i32 %203, 0
  br i1 %204, label %205, label %231

205:                                              ; preds = %195
  %206 = load ptr, ptr %10, align 8, !tbaa !9
  %207 = getelementptr inbounds i8, ptr %206, i64 3
  %208 = load i8, ptr %207, align 1, !tbaa !19
  %209 = zext i8 %208 to i64
  %210 = getelementptr inbounds nuw [256 x i8], ptr @sane_ctype, i64 0, i64 %209
  %211 = load i8, ptr %210, align 1, !tbaa !19
  %212 = zext i8 %211 to i32
  %213 = and i32 %212, 2
  %214 = icmp ne i32 %213, 0
  br i1 %214, label %215, label %231

215:                                              ; preds = %205
  %216 = load ptr, ptr %10, align 8, !tbaa !9
  %217 = getelementptr inbounds i8, ptr %216, i64 4
  %218 = load i8, ptr %217, align 1, !tbaa !19
  %219 = zext i8 %218 to i64
  %220 = getelementptr inbounds nuw [256 x i8], ptr @sane_ctype, i64 0, i64 %219
  %221 = load i8, ptr %220, align 1, !tbaa !19
  %222 = zext i8 %221 to i32
  %223 = and i32 %222, 2
  %224 = icmp ne i32 %223, 0
  br i1 %224, label %225, label %231

225:                                              ; preds = %215
  %226 = load ptr, ptr %10, align 8, !tbaa !9
  %227 = getelementptr inbounds i8, ptr %226, i64 5
  %228 = load i8, ptr %227, align 1, !tbaa !19
  %229 = sext i8 %228 to i32
  %230 = icmp ne i32 %229, 10
  br i1 %230, label %231, label %236

231:                                              ; preds = %225, %215, %205, %195, %185, %180
  %232 = load ptr, ptr %9, align 8, !tbaa !24
  %233 = load ptr, ptr %7, align 8, !tbaa !69
  %234 = load i32, ptr %8, align 4, !tbaa !11
  %235 = call i32 (ptr, ptr, i32, i32, ptr, ...) @report(ptr noundef %232, ptr noundef %233, i32 noundef %234, i32 noundef 12, ptr noundef @.str.129)
  store i32 %235, ptr %5, align 4
  store i32 1, ptr %12, align 4
  br label %239

236:                                              ; preds = %225
  %237 = load ptr, ptr %10, align 8, !tbaa !9
  %238 = getelementptr inbounds i8, ptr %237, i64 6
  store ptr %238, ptr %10, align 8, !tbaa !9
  store i32 0, ptr %5, align 4
  store i32 1, ptr %12, align 4
  br label %239

239:                                              ; preds = %236, %231, %168, %154, %144, %128, %96, %84, %68, %57, %47, %33
  call void @llvm.lifetime.end.p0(i64 8, ptr %11) #11
  call void @llvm.lifetime.end.p0(i64 8, ptr %10) #11
  %240 = load i32, ptr %5, align 4
  ret i32 %240
}