; Function Attrs: nounwind uwtable
define internal fastcc i32 @fsck_ident(ptr noundef nonnull captures(none) %0, ptr noundef %1, i32 noundef range(i32 1, 5) %2, ptr noundef %3) unnamed_addr #0 {
  %5 = alloca ptr, align 8
  %6 = load ptr, ptr %0, align 8, !tbaa !98
  call void @llvm.lifetime.start.p0(i64 8, ptr nonnull %5) #16
  %7 = tail call ptr @strchrnul(ptr noundef %6, i32 noundef 10) #17
  store ptr %7, ptr %0, align 8, !tbaa !98
  %8 = load i8, ptr %7, align 1, !tbaa !15
  %9 = icmp eq i8 %8, 10
  br i1 %9, label %10, label %12

10:                                               ; preds = %4
  %11 = getelementptr inbounds nuw i8, ptr %7, i64 1
  store ptr %11, ptr %0, align 8, !tbaa !98
  br label %12

12:                                               ; preds = %10, %4
  %13 = load i8, ptr %6, align 1, !tbaa !15
  %14 = icmp eq i8 %13, 60
  br i1 %14, label %15, label %17

15:                                               ; preds = %12
  %16 = tail call i32 (ptr, ptr, i32, i32, ptr, ...) @report(ptr noundef %3, ptr noundef %1, i32 noundef %2, i32 noundef 20, ptr noundef nonnull @.str.120)
  br label %109

17:                                               ; preds = %12
  %18 = tail call i64 @strcspn(ptr noundef nonnull %6, ptr noundef nonnull @.str.121) #17
  %19 = getelementptr inbounds nuw i8, ptr %6, i64 %18
  %20 = load i8, ptr %19, align 1, !tbaa !15
  switch i8 %20, label %23 [
    i8 62, label %21
    i8 60, label %25
  ]

21:                                               ; preds = %17
  %22 = tail call i32 (ptr, ptr, i32, i32, ptr, ...) @report(ptr noundef %3, ptr noundef %1, i32 noundef %2, i32 noundef 5, ptr noundef nonnull @.str.122)
  br label %109

23:                                               ; preds = %17
  %24 = tail call i32 (ptr, ptr, i32, i32, ptr, ...) @report(ptr noundef %3, ptr noundef %1, i32 noundef %2, i32 noundef 19, ptr noundef nonnull @.str.123)
  br label %109

25:                                               ; preds = %17
  %26 = getelementptr inbounds i8, ptr %19, i64 -1
  %27 = load i8, ptr %26, align 1, !tbaa !15
  %.not72 = icmp eq i8 %27, 32
  br i1 %.not72, label %30, label %28

28:                                               ; preds = %25
  %29 = tail call i32 (ptr, ptr, i32, i32, ptr, ...) @report(ptr noundef %3, ptr noundef %1, i32 noundef %2, i32 noundef 23, ptr noundef nonnull @.str.120)
  br label %109

30:                                               ; preds = %25
  %31 = getelementptr inbounds nuw i8, ptr %19, i64 1
  %32 = tail call i64 @strcspn(ptr noundef nonnull %31, ptr noundef nonnull @.str.121) #17
  %33 = getelementptr inbounds nuw i8, ptr %31, i64 %32
  %34 = load i8, ptr %33, align 1, !tbaa !15
  %.not73 = icmp eq i8 %34, 62
  br i1 %.not73, label %37, label %35

35:                                               ; preds = %30
  %36 = tail call i32 (ptr, ptr, i32, i32, ptr, ...) @report(ptr noundef %3, ptr noundef %1, i32 noundef %2, i32 noundef 4, ptr noundef nonnull @.str.124)
  br label %109

37:                                               ; preds = %30
  %38 = getelementptr inbounds nuw i8, ptr %33, i64 1
  %39 = load i8, ptr %38, align 1, !tbaa !15
  %.not74 = icmp eq i8 %39, 32
  br i1 %.not74, label %42, label %40

40:                                               ; preds = %37
  %41 = tail call i32 (ptr, ptr, i32, i32, ptr, ...) @report(ptr noundef %3, ptr noundef %1, i32 noundef %2, i32 noundef 22, ptr noundef nonnull @.str.125)
  br label %109

42:                                               ; preds = %37
  %43 = getelementptr inbounds nuw i8, ptr %33, i64 2
  br label %44

44:                                               ; preds = %.critedge, %42
  %.0 = phi ptr [ %43, %42 ], [ %46, %.critedge ]
  %45 = load i8, ptr %.0, align 1, !tbaa !15
  switch i8 %45, label %47 [
    i8 32, label %.critedge
    i8 9, label %.critedge
  ]

.critedge:                                        ; preds = %44, %44
  %46 = getelementptr inbounds nuw i8, ptr %.0, i64 1
  br label %44, !llvm.loop !102

47:                                               ; preds = %44
  %48 = zext i8 %45 to i64
  %49 = getelementptr inbounds nuw [256 x i8], ptr @sane_ctype, i64 0, i64 %48
  %50 = load i8, ptr %49, align 1, !tbaa !15
  %51 = and i8 %50, 2
  %.not75 = icmp eq i8 %51, 0
  br i1 %.not75, label %52, label %54

52:                                               ; preds = %47
  %53 = tail call i32 (ptr, ptr, i32, i32, ptr, ...) @report(ptr noundef %3, ptr noundef %1, i32 noundef %2, i32 noundef 2, ptr noundef nonnull @.str.126)
  br label %109

54:                                               ; preds = %47
  %55 = icmp eq i8 %45, 48
  br i1 %55, label %56, label %61

56:                                               ; preds = %54
  %57 = getelementptr inbounds nuw i8, ptr %.0, i64 1
  %58 = load i8, ptr %57, align 1, !tbaa !15
  %.not76 = icmp eq i8 %58, 32
  br i1 %.not76, label %61, label %59

59:                                               ; preds = %56
  %60 = tail call i32 (ptr, ptr, i32, i32, ptr, ...) @report(ptr noundef %3, ptr noundef %1, i32 noundef %2, i32 noundef 32, ptr noundef nonnull @.str.127)
  br label %109

61:                                               ; preds = %56, %54
  %62 = call i64 @strtoumax(ptr noundef nonnull %.0, ptr noundef nonnull %5, i32 noundef 10) #16
  %63 = call i32 @date_overflows(i64 noundef %62) #16
  %.not77 = icmp eq i32 %63, 0
  br i1 %.not77, label %66, label %64

64:                                               ; preds = %61
  %65 = call i32 (ptr, ptr, i32, i32, ptr, ...) @report(ptr noundef %3, ptr noundef %1, i32 noundef %2, i32 noundef 3, ptr noundef nonnull @.str.128)
  br label %109

66:                                               ; preds = %61
  %67 = load ptr, ptr %5, align 8, !tbaa !98
  %68 = icmp eq ptr %67, %.0
  br i1 %68, label %71, label %69

69:                                               ; preds = %66
  %70 = load i8, ptr %67, align 1, !tbaa !15
  %.not78 = icmp eq i8 %70, 32
  br i1 %.not78, label %73, label %71

71:                                               ; preds = %69, %66
  %72 = call i32 (ptr, ptr, i32, i32, ptr, ...) @report(ptr noundef %3, ptr noundef %1, i32 noundef %2, i32 noundef 2, ptr noundef nonnull @.str.126)
  br label %109

73:                                               ; preds = %69
  %74 = getelementptr inbounds nuw i8, ptr %67, i64 1
  %75 = load i8, ptr %74, align 1, !tbaa !15
  switch i8 %75, label %107 [
    i8 43, label %76
    i8 45, label %76
  ]

76:                                               ; preds = %73, %73
  %77 = getelementptr inbounds nuw i8, ptr %67, i64 2
  %78 = load i8, ptr %77, align 1, !tbaa !15
  %79 = zext i8 %78 to i64
  %80 = getelementptr inbounds nuw [256 x i8], ptr @sane_ctype, i64 0, i64 %79
  %81 = load i8, ptr %80, align 1, !tbaa !15
  %82 = and i8 %81, 2
  %.not81 = icmp eq i8 %82, 0
  br i1 %.not81, label %107, label %83

83:                                               ; preds = %76
  %84 = getelementptr inbounds nuw i8, ptr %67, i64 3
  %85 = load i8, ptr %84, align 1, !tbaa !15
  %86 = zext i8 %85 to i64
  %87 = getelementptr inbounds nuw [256 x i8], ptr @sane_ctype, i64 0, i64 %86
  %88 = load i8, ptr %87, align 1, !tbaa !15
  %89 = and i8 %88, 2
  %.not82 = icmp eq i8 %89, 0
  br i1 %.not82, label %107, label %90

90:                                               ; preds = %83
  %91 = getelementptr inbounds nuw i8, ptr %67, i64 4
  %92 = load i8, ptr %91, align 1, !tbaa !15
  %93 = zext i8 %92 to i64
  %94 = getelementptr inbounds nuw [256 x i8], ptr @sane_ctype, i64 0, i64 %93
  %95 = load i8, ptr %94, align 1, !tbaa !15
  %96 = and i8 %95, 2
  %.not83 = icmp eq i8 %96, 0
  br i1 %.not83, label %107, label %97

97:                                               ; preds = %90
  %98 = getelementptr inbounds nuw i8, ptr %67, i64 5
  %99 = load i8, ptr %98, align 1, !tbaa !15
  %100 = zext i8 %99 to i64
  %101 = getelementptr inbounds nuw [256 x i8], ptr @sane_ctype, i64 0, i64 %100
  %102 = load i8, ptr %101, align 1, !tbaa !15
  %103 = and i8 %102, 2
  %.not84 = icmp eq i8 %103, 0
  br i1 %.not84, label %107, label %104

104:                                              ; preds = %97
  %105 = getelementptr inbounds nuw i8, ptr %67, i64 6
  %106 = load i8, ptr %105, align 1, !tbaa !15
  %.not85 = icmp eq i8 %106, 10
  br i1 %.not85, label %109, label %107

107:                                              ; preds = %73, %104, %97, %90, %83, %76
  %108 = call i32 (ptr, ptr, i32, i32, ptr, ...) @report(ptr noundef %3, ptr noundef %1, i32 noundef %2, i32 noundef 12, ptr noundef nonnull @.str.129)
  br label %109

109:                                              ; preds = %104, %107, %71, %64, %59, %52, %40, %35, %28, %23, %21, %15
  %.067 = phi i32 [ %16, %15 ], [ %22, %21 ], [ %24, %23 ], [ %29, %28 ], [ %36, %35 ], [ %41, %40 ], [ %60, %59 ], [ %65, %64 ], [ %72, %71 ], [ %108, %107 ], [ %53, %52 ], [ 0, %104 ]
  call void @llvm.lifetime.end.p0(i64 8, ptr nonnull %5) #16
  ret i32 %.067
}